; Function Attrs: nounwind uwtable
define void @avtext_print_unit_int(ptr noundef %0, ptr noundef %1, i32 noundef %2, ptr noundef %3) local_unnamed_addr #0 {
  %5 = alloca [128 x i8], align 16
  call void @llvm.lifetime.start.p0(i64 128, ptr nonnull %5) #12
  %6 = sext i32 %2 to i64
  %7 = call fastcc ptr @value_string(ptr noundef %0, ptr noundef %5, i64 %6, ptr %3)
  %.not = icmp eq ptr %1, null
  br i1 %.not, label %11, label %8

8:                                                ; preds = %4
  %9 = getelementptr inbounds nuw i8, ptr %0, i64 52
  %10 = load i32, ptr %9, align 4, !tbaa !38
  %or.cond47.i = icmp ult i32 %10, 12
  br i1 %or.cond47.i, label %12, label %11

11:                                               ; preds = %8, %4
  call void (ptr, i32, ptr, ...) @av_log(ptr noundef null, i32 noundef 0, ptr noundef nonnull @.str, ptr noundef nonnull @.str.17, ptr noundef nonnull @.str.2, i32 noundef 455) #12
  call void @abort() #13
  unreachable

12:                                               ; preds = %8
  %13 = getelementptr inbounds nuw i8, ptr %0, i64 4904
  %14 = zext nneg i32 %10 to i64
  %15 = getelementptr inbounds nuw [12 x ptr], ptr %13, i64 0, i64 %14
  %16 = load ptr, ptr %15, align 8, !tbaa !60
  %17 = getelementptr inbounds nuw i8, ptr %0, i64 17288
  %18 = load i32, ptr %17, align 8, !tbaa !37
  %cond = icmp eq i32 %18, 0
  br i1 %cond, label %avtext_print_string.exit, label %19

19:                                               ; preds = %12
  %20 = getelementptr inbounds nuw i8, ptr %16, i64 104
  %21 = load i32, ptr %20, align 8, !tbaa !66
  %.not44.i = icmp eq i32 %21, 0
  br i1 %.not44.i, label %22, label %26

22:                                               ; preds = %19
  %23 = getelementptr inbounds nuw i8, ptr %16, i64 88
  %24 = load ptr, ptr %23, align 8, !tbaa !67
  %25 = call ptr @av_dict_get(ptr noundef %24, ptr noundef nonnull %1, ptr noundef null, i32 noundef 0) #12
  %.not45.i = icmp eq ptr %25, null
  br i1 %.not45.i, label %avtext_print_string.exit, label %26

26:                                               ; preds = %22, %19
  %27 = getelementptr inbounds nuw i8, ptr %0, i64 8
  %28 = load ptr, ptr %27, align 8, !tbaa !9
  %29 = getelementptr inbounds nuw i8, ptr %28, i64 64
  %30 = load ptr, ptr %29, align 8, !tbaa !69
  call void %30(ptr noundef nonnull %0, ptr noundef nonnull %1, ptr noundef nonnull %5) #12
  %31 = getelementptr inbounds nuw i8, ptr %0, i64 56
  %32 = load i32, ptr %9, align 4, !tbaa !38
  %33 = sext i32 %32 to i64
  %34 = getelementptr inbounds [12 x i32], ptr %31, i64 0, i64 %33
  %35 = load i32, ptr %34, align 4, !tbaa !59
  %36 = add i32 %35, 1
  store i32 %36, ptr %34, align 4, !tbaa !59
  br label %avtext_print_string.exit

avtext_print_string.exit:                         ; preds = %12, %22, %26
  call void @llvm.lifetime.end.p0(i64 128, ptr nonnull %5) #12
  ret void
}